; Function Attrs: nounwind uwtable
define noundef ptr @Abc_NtkIvyStrash(ptr noundef %0) local_unnamed_addr #0 {
  %2 = tail call ptr @Abc_NtkIvyBefore(ptr noundef %0, i32 noundef 1, i32 noundef 0)
  %3 = icmp eq ptr %2, null
  br i1 %3, label %6, label %4

4:                                                ; preds = %1
  %5 = tail call ptr @Abc_NtkIvyAfter(ptr noundef %0, ptr noundef nonnull %2, i32 noundef 1, i32 noundef 0)
  tail call void @Ivy_ManStop(ptr noundef nonnull %2) #15
  br label %6

6:                                                ; preds = %1, %4
  %.0 = phi ptr [ %5, %4 ], [ null, %1 ]
  ret ptr %.0
}